target datalayout = "e-m:e-p270:32:32-p271:32:32-p272:64:64-i64:64-i128:128-f80:128-n8:16:32:64-S128"
target triple = "x86_64-pc-linux-gnu"

%struct.GCRef = type { i64 }
%struct.jit_State = type { %struct.GCtrace, ptr, ptr, ptr, ptr, ptr, ptr, i32, i32, i32, i8, i8, %struct.IRType1, i8, %struct.FoldState, ptr, i32, i32, i32, i32, i32, i32, i32, [1 x i32], [5 x %union.TValue], [3 x %union.TValue], ptr, i32, i32, i32, i32, ptr, ptr, i32, i32, i8, ptr, i32, i32, i16, [101 x i16], [258 x i32], [15 x i32], [16 x ptr], [64 x %struct.HotPenalty], i32, [16 x %struct.BPropEntry], i32, %struct.ScEvEntry, ptr, i32, i32, i32, ptr, i32, i32, ptr, ptr, ptr, i64, i64, %union.TValue, ptr, i32, i32 }
%struct.GCtrace = type { %struct.GCRef, i8, i8, i16, i32, i32, %struct.GCRef, ptr, i32, i32, ptr, ptr, %struct.GCRef, %struct.MRef, i32, i32, ptr, i32, i16, i16, i16, i16, i16, i16, i16, i8, i8, i8, i8 }
%struct.MRef = type { i64 }
%struct.IRType1 = type { i8 }
%struct.FoldState = type { %union.IRIns, [2 x %union.IRIns], [2 x %union.IRIns] }
%union.IRIns = type { %struct.GCRef }
%struct.HotPenalty = type { %struct.MRef, i16, i16 }
%struct.BPropEntry = type { i16, i16, i32 }
%struct.ScEvEntry = type { %struct.MRef, i16, i16, i16, i16, %struct.IRType1, i8 }
%union.TValue = type { i64 }
%struct.anon.2 = type { i16, i16, i16, i16 }
%struct.RecordFFData = type { ptr, i64, i32 }

; Function Attrs: alwaysinline nounwind uwtable
define internal void @lj_ir_set_(ptr noundef %0, i16 noundef zeroext %1, i16 noundef zeroext %2, i16 noundef zeroext %3) #1 {
  %5 = alloca ptr, align 8
  %6 = alloca i16, align 2
  %7 = alloca i16, align 2
  %8 = alloca i16, align 2
  store ptr %0, ptr %5, align 8, !tbaa !4
  store i16 %1, ptr %6, align 2, !tbaa !14
  store i16 %2, ptr %7, align 2, !tbaa !14
  store i16 %3, ptr %8, align 2, !tbaa !14
  %9 = load i16, ptr %6, align 2, !tbaa !14
  %10 = load ptr, ptr %5, align 8, !tbaa !4
  %11 = getelementptr inbounds nuw %struct.jit_State, ptr %10, i32 0, i32 14
  %12 = getelementptr inbounds nuw %struct.FoldState, ptr %11, i32 0, i32 0
  %13 = getelementptr inbounds nuw %struct.anon.2, ptr %12, i32 0, i32 2
  store i16 %9, ptr %13, align 4, !tbaa !13
  %14 = load i16, ptr %7, align 2, !tbaa !14
  %15 = load ptr, ptr %5, align 8, !tbaa !4
  %16 = getelementptr inbounds nuw %struct.jit_State, ptr %15, i32 0, i32 14
  %17 = getelementptr inbounds nuw %struct.FoldState, ptr %16, i32 0, i32 0
  %18 = getelementptr inbounds nuw %struct.anon.2, ptr %17, i32 0, i32 0
  store i16 %14, ptr %18, align 8, !tbaa !13
  %19 = load i16, ptr %8, align 2, !tbaa !14
  %20 = load ptr, ptr %5, align 8, !tbaa !4
  %21 = getelementptr inbounds nuw %struct.jit_State, ptr %20, i32 0, i32 14
  %22 = getelementptr inbounds nuw %struct.FoldState, ptr %21, i32 0, i32 0
  %23 = getelementptr inbounds nuw %struct.anon.2, ptr %22, i32 0, i32 1
  store i16 %19, ptr %23, align 2, !tbaa !13
  ret void
}

; Function Attrs: nounwind uwtable
define internal i32 @recff_sbufx_checkint(ptr noundef %0, ptr noundef %1, i64 noundef %2) #0 {
  %4 = alloca ptr, align 8
  %5 = alloca ptr, align 8
  %6 = alloca i64, align 8
  %7 = alloca i32, align 4
  %8 = alloca i32, align 4
  store ptr %0, ptr %4, align 8, !tbaa !4
  store ptr %1, ptr %5, align 8, !tbaa !46
  store i64 %2, ptr %6, align 8, !tbaa !60
  call void @llvm.lifetime.start.p0(i64 4, ptr %7) #9
  %9 = load ptr, ptr %4, align 8, !tbaa !4
  %10 = getelementptr inbounds nuw %struct.jit_State, ptr %9, i32 0, i32 6
  %11 = load ptr, ptr %10, align 8, !tbaa !41
  %12 = load i64, ptr %6, align 8, !tbaa !60
  %13 = getelementptr inbounds i32, ptr %11, i64 %12
  %14 = load i32, ptr %13, align 4, !tbaa !9
  store i32 %14, ptr %7, align 4, !tbaa !9
  call void @llvm.lifetime.start.p0(i64 4, ptr %8) #9
  %15 = load ptr, ptr %4, align 8, !tbaa !4
  %16 = call i32 @lj_ir_kint(ptr noundef %15, i32 noundef 2147483392)
  store i32 %16, ptr %8, align 4, !tbaa !9
  %17 = load i32, ptr %7, align 4, !tbaa !9
  %18 = lshr i32 %17, 24
  %19 = and i32 %18, 31
  %20 = sub i32 %19, 15
  %21 = icmp ule i32 %20, 4
  br i1 %21, label %22, label %30

22:                                               ; preds = %3
  %23 = load ptr, ptr %4, align 8, !tbaa !4
  %24 = load i32, ptr %7, align 4, !tbaa !9
  %25 = trunc i32 %24 to i16
  %26 = load i32, ptr %8, align 4, !tbaa !9
  %27 = trunc i32 %26 to i16
  call void @lj_ir_set_(ptr noundef %23, i16 noundef zeroext 1683, i16 noundef zeroext %25, i16 noundef zeroext %27)
  %28 = load ptr, ptr %4, align 8, !tbaa !4
  %29 = call i32 @lj_opt_fold(ptr noundef %28)
  br label %77

30:                                               ; preds = %3
  %31 = load i32, ptr %7, align 4, !tbaa !9
  %32 = and i32 %31, 520093696
  %33 = icmp eq i32 %32, 234881024
  br i1 %33, label %34, label %47

34:                                               ; preds = %30
  %35 = load ptr, ptr %4, align 8, !tbaa !4
  %36 = load i32, ptr %7, align 4, !tbaa !9
  %37 = trunc i32 %36 to i16
  call void @lj_ir_set_(ptr noundef %35, i16 noundef zeroext 23315, i16 noundef zeroext %37, i16 noundef zeroext 4718)
  %38 = load ptr, ptr %4, align 8, !tbaa !4
  %39 = call i32 @lj_opt_fold(ptr noundef %38)
  store i32 %39, ptr %7, align 4, !tbaa !9
  %40 = load ptr, ptr %4, align 8, !tbaa !4
  %41 = load i32, ptr %7, align 4, !tbaa !9
  %42 = trunc i32 %41 to i16
  %43 = load i32, ptr %8, align 4, !tbaa !9
  %44 = trunc i32 %43 to i16
  call void @lj_ir_set_(ptr noundef %40, i16 noundef zeroext 1683, i16 noundef zeroext %42, i16 noundef zeroext %44)
  %45 = load ptr, ptr %4, align 8, !tbaa !4
  %46 = call i32 @lj_opt_fold(ptr noundef %45)
  br label %76

47:                                               ; preds = %30
  %48 = load i32, ptr %7, align 4, !tbaa !9
  %49 = and i32 %48, 520093696
  %50 = icmp eq i32 %49, 167772160
  br i1 %50, label %51, label %73

51:                                               ; preds = %47
  %52 = load ptr, ptr %4, align 8, !tbaa !4
  %53 = load i32, ptr %7, align 4, !tbaa !9
  %54 = load ptr, ptr %5, align 8, !tbaa !46
  %55 = getelementptr inbounds nuw %struct.RecordFFData, ptr %54, i32 0, i32 0
  %56 = load ptr, ptr %55, align 8, !tbaa !40
  %57 = load i64, ptr %6, align 8, !tbaa !60
  %58 = getelementptr inbounds %union.TValue, ptr %56, i64 %57
  %59 = call i32 @lj_crecord_loadiu64(ptr noundef %52, i32 noundef %53, ptr noundef %58)
  store i32 %59, ptr %7, align 4, !tbaa !9
  %60 = load ptr, ptr %4, align 8, !tbaa !4
  %61 = load i32, ptr %7, align 4, !tbaa !9
  %62 = trunc i32 %61 to i16
  %63 = load ptr, ptr %4, align 8, !tbaa !4
  %64 = call i32 @lj_ir_kint64(ptr noundef %63, i64 noundef 2147483392)
  %65 = trunc i32 %64 to i16
  call void @lj_ir_set_(ptr noundef %60, i16 noundef zeroext 1686, i16 noundef zeroext %62, i16 noundef zeroext %65)
  %66 = load ptr, ptr %4, align 8, !tbaa !4
  %67 = call i32 @lj_opt_fold(ptr noundef %66)
  %68 = load ptr, ptr %4, align 8, !tbaa !4
  %69 = load i32, ptr %7, align 4, !tbaa !9
  %70 = trunc i32 %69 to i16
  call void @lj_ir_set_(ptr noundef %68, i16 noundef zeroext 23315, i16 noundef zeroext %70, i16 noundef zeroext 4725)
  %71 = load ptr, ptr %4, align 8, !tbaa !4
  %72 = call i32 @lj_opt_fold(ptr noundef %71)
  store i32 %72, ptr %7, align 4, !tbaa !9
  br label %75

73:                                               ; preds = %47
  %74 = load ptr, ptr %4, align 8, !tbaa !4
  call void @lj_trace_err(ptr noundef %74, i32 noundef 11) #10
  unreachable

75:                                               ; preds = %51
  br label %76

76:                                               ; preds = %75, %34
  br label %77

77:                                               ; preds = %76, %22
  %78 = load i32, ptr %7, align 4, !tbaa !9
  call void @llvm.lifetime.end.p0(i64 4, ptr %8) #9
  call void @llvm.lifetime.end.p0(i64 4, ptr %7) #9
  ret i32 %78
}