; Function Attrs: nounwind uwtable
define internal fastcc i32 @recff_sbufx_checkint(ptr noundef %0, ptr noundef readonly captures(none) %1, i64 noundef range(i64 -9223372036854775807, -9223372036854775808) %2) unnamed_addr #0 {
  %4 = getelementptr inbounds nuw i8, ptr %0, i64 160
  %5 = load ptr, ptr %4, align 8, !tbaa !37
  %6 = getelementptr inbounds i32, ptr %5, i64 %2
  %7 = load i32, ptr %6, align 4, !tbaa !39
  %8 = tail call i32 @lj_ir_kint(ptr noundef %0, i32 noundef 2147483392) #9
  %9 = lshr i32 %7, 24
  %10 = and i32 %9, 31
  %11 = add nsw i32 %10, -15
  %12 = icmp ult i32 %11, 5
  br i1 %12, label %13, label %20

13:                                               ; preds = %3
  %14 = trunc i32 %7 to i16
  %15 = trunc i32 %8 to i16
  %16 = getelementptr inbounds nuw i8, ptr %0, i64 184
  %17 = getelementptr inbounds nuw i8, ptr %0, i64 188
  store i16 1683, ptr %17, align 4, !tbaa !4
  store i16 %14, ptr %16, align 8, !tbaa !4
  %18 = getelementptr inbounds nuw i8, ptr %0, i64 186
  store i16 %15, ptr %18, align 2, !tbaa !4
  %19 = tail call i32 @lj_opt_fold(ptr noundef nonnull %0) #9
  br label %44

20:                                               ; preds = %3
  %21 = and i32 %7, 520093696
  switch i32 %21, label %43 [
    i32 234881024, label %22
    i32 167772160, label %31
  ]

22:                                               ; preds = %20
  %23 = trunc i32 %7 to i16
  %24 = getelementptr inbounds nuw i8, ptr %0, i64 184
  %25 = getelementptr inbounds nuw i8, ptr %0, i64 188
  store i16 23315, ptr %25, align 4, !tbaa !4
  store i16 %23, ptr %24, align 8, !tbaa !4
  %26 = getelementptr inbounds nuw i8, ptr %0, i64 186
  store i16 4718, ptr %26, align 2, !tbaa !4
  %27 = tail call i32 @lj_opt_fold(ptr noundef nonnull %0) #9
  %28 = trunc i32 %27 to i16
  %29 = trunc i32 %8 to i16
  store i16 1683, ptr %25, align 4, !tbaa !4
  store i16 %28, ptr %24, align 8, !tbaa !4
  store i16 %29, ptr %26, align 2, !tbaa !4
  %30 = tail call i32 @lj_opt_fold(ptr noundef nonnull %0) #9
  br label %44

31:                                               ; preds = %20
  %32 = load ptr, ptr %1, align 8, !tbaa !36
  %33 = getelementptr inbounds %union.TValue, ptr %32, i64 %2
  %34 = tail call i32 @lj_crecord_loadiu64(ptr noundef nonnull %0, i32 noundef %7, ptr noundef %33) #9
  %35 = trunc i32 %34 to i16
  %36 = tail call i32 @lj_ir_kint64(ptr noundef nonnull %0, i64 noundef 2147483392) #9
  %37 = trunc i32 %36 to i16
  %38 = getelementptr inbounds nuw i8, ptr %0, i64 184
  %39 = getelementptr inbounds nuw i8, ptr %0, i64 188
  store i16 1686, ptr %39, align 4, !tbaa !4
  store i16 %35, ptr %38, align 8, !tbaa !4
  %40 = getelementptr inbounds nuw i8, ptr %0, i64 186
  store i16 %37, ptr %40, align 2, !tbaa !4
  %41 = tail call i32 @lj_opt_fold(ptr noundef nonnull %0) #9
  store i16 23315, ptr %39, align 4, !tbaa !4
  store i16 %35, ptr %38, align 8, !tbaa !4
  store i16 4725, ptr %40, align 2, !tbaa !4
  %42 = tail call i32 @lj_opt_fold(ptr noundef nonnull %0) #9
  br label %44

43:                                               ; preds = %20
  tail call void @lj_trace_err(ptr noundef nonnull %0, i32 noundef 11) #10
  unreachable

44:                                               ; preds = %22, %31, %13
  %.0 = phi i32 [ %7, %13 ], [ %27, %22 ], [ %42, %31 ]
  ret i32 %.0
}